target datalayout = "e-m:e-p270:32:32-p271:32:32-p272:64:64-i64:64-i128:128-f80:128-n8:16:32:64-S128"
target triple = "x86_64-pc-linux-gnu"

%struct.UriMemoryManagerStruct = type { ptr, ptr, ptr, ptr, ptr, ptr }

; Function Attrs: nounwind uwtable
define internal ptr @uriDecorateRealloc(ptr noundef %0, ptr noundef %1, i64 noundef %2) #0 {
  %4 = alloca ptr, align 8
  %5 = alloca ptr, align 8
  %6 = alloca ptr, align 8
  %7 = alloca i64, align 8
  %8 = alloca ptr, align 8
  %9 = alloca i64, align 8
  %10 = alloca i32, align 4
  store ptr %0, ptr %5, align 8, !tbaa !3
  store ptr %1, ptr %6, align 8, !tbaa !18
  store i64 %2, ptr %7, align 8, !tbaa !14
  call void @llvm.lifetime.start.p0(i64 8, ptr %8) #9
  call void @llvm.lifetime.start.p0(i64 8, ptr %9) #9
  %11 = load ptr, ptr %5, align 8, !tbaa !3
  %12 = icmp eq ptr %11, null
  br i1 %12, label %13, label %15

13:                                               ; preds = %3
  %14 = call ptr @__errno_location() #10
  store i32 22, ptr %14, align 4, !tbaa !16
  store ptr null, ptr %4, align 8
  store i32 1, ptr %10, align 4
  br label %63

15:                                               ; preds = %3
  %16 = load ptr, ptr %6, align 8, !tbaa !18
  %17 = icmp eq ptr %16, null
  br i1 %17, label %18, label %25

18:                                               ; preds = %15
  %19 = load ptr, ptr %5, align 8, !tbaa !3
  %20 = getelementptr inbounds nuw %struct.UriMemoryManagerStruct, ptr %19, i32 0, i32 0
  %21 = load ptr, ptr %20, align 8, !tbaa !8
  %22 = load ptr, ptr %5, align 8, !tbaa !3
  %23 = load i64, ptr %7, align 8, !tbaa !14
  %24 = call ptr %21(ptr noundef %22, i64 noundef %23)
  store ptr %24, ptr %4, align 8
  store i32 1, ptr %10, align 4
  br label %63

25:                                               ; preds = %15
  %26 = load i64, ptr %7, align 8, !tbaa !14
  %27 = icmp eq i64 %26, 0
  br i1 %27, label %28, label %34

28:                                               ; preds = %25
  %29 = load ptr, ptr %5, align 8, !tbaa !3
  %30 = getelementptr inbounds nuw %struct.UriMemoryManagerStruct, ptr %29, i32 0, i32 4
  %31 = load ptr, ptr %30, align 8, !tbaa !13
  %32 = load ptr, ptr %5, align 8, !tbaa !3
  %33 = load ptr, ptr %6, align 8, !tbaa !18
  call void %31(ptr noundef %32, ptr noundef %33)
  store ptr null, ptr %4, align 8
  store i32 1, ptr %10, align 4
  br label %63

34:                                               ; preds = %25
  %35 = load ptr, ptr %6, align 8, !tbaa !18
  %36 = getelementptr inbounds i8, ptr %35, i64 -8
  %37 = load i64, ptr %36, align 8, !tbaa !14
  store i64 %37, ptr %9, align 8, !tbaa !14
  %38 = load i64, ptr %7, align 8, !tbaa !14
  %39 = load i64, ptr %9, align 8, !tbaa !14
  %40 = icmp ule i64 %38, %39
  br i1 %40, label %41, label %43

41:                                               ; preds = %34
  %42 = load ptr, ptr %6, align 8, !tbaa !18
  store ptr %42, ptr %4, align 8
  store i32 1, ptr %10, align 4
  br label %63

43:                                               ; preds = %34
  %44 = load ptr, ptr %5, align 8, !tbaa !3
  %45 = getelementptr inbounds nuw %struct.UriMemoryManagerStruct, ptr %44, i32 0, i32 0
  %46 = load ptr, ptr %45, align 8, !tbaa !8
  %47 = load ptr, ptr %5, align 8, !tbaa !3
  %48 = load i64, ptr %7, align 8, !tbaa !14
  %49 = call ptr %46(ptr noundef %47, i64 noundef %48)
  store ptr %49, ptr %8, align 8, !tbaa !18
  %50 = load ptr, ptr %8, align 8, !tbaa !18
  %51 = icmp eq ptr %50, null
  br i1 %51, label %52, label %53

52:                                               ; preds = %43
  store ptr null, ptr %4, align 8
  store i32 1, ptr %10, align 4
  br label %63

53:                                               ; preds = %43
  %54 = load ptr, ptr %8, align 8, !tbaa !18
  %55 = load ptr, ptr %6, align 8, !tbaa !18
  %56 = load i64, ptr %9, align 8, !tbaa !14
  call void @llvm.memcpy.p0.p0.i64(ptr align 1 %54, ptr align 1 %55, i64 %56, i1 false)
  %57 = load ptr, ptr %5, align 8, !tbaa !3
  %58 = getelementptr inbounds nuw %struct.UriMemoryManagerStruct, ptr %57, i32 0, i32 4
  %59 = load ptr, ptr %58, align 8, !tbaa !13
  %60 = load ptr, ptr %5, align 8, !tbaa !3
  %61 = load ptr, ptr %6, align 8, !tbaa !18
  call void %59(ptr noundef %60, ptr noundef %61)
  %62 = load ptr, ptr %8, align 8, !tbaa !18
  store ptr %62, ptr %4, align 8
  store i32 1, ptr %10, align 4
  br label %63

63:                                               ; preds = %53, %52, %41, %28, %18, %13
  call void @llvm.lifetime.end.p0(i64 8, ptr %9) #9
  call void @llvm.lifetime.end.p0(i64 8, ptr %8) #9
  %64 = load ptr, ptr %4, align 8
  ret ptr %64
}