; Function Attrs: nounwind uwtable
define internal ptr @uriDecorateRealloc(ptr noundef %0, ptr noundef %1, i64 noundef %2) #1 {
  %4 = icmp eq ptr %0, null
  br i1 %4, label %5, label %7

5:                                                ; preds = %3
  %6 = tail call ptr @__errno_location() #14
  store i32 22, ptr %6, align 4, !tbaa !12
  br label %27

7:                                                ; preds = %3
  %8 = icmp eq ptr %1, null
  br i1 %8, label %9, label %12

9:                                                ; preds = %7
  %10 = load ptr, ptr %0, align 8, !tbaa !3
  %11 = tail call ptr %10(ptr noundef nonnull %0, i64 noundef %2) #15
  br label %27

12:                                               ; preds = %7
  %13 = icmp eq i64 %2, 0
  br i1 %13, label %14, label %17

14:                                               ; preds = %12
  %15 = getelementptr inbounds nuw i8, ptr %0, i64 32
  %16 = load ptr, ptr %15, align 8, !tbaa !11
  tail call void %16(ptr noundef nonnull %0, ptr noundef nonnull %1) #15
  br label %27

17:                                               ; preds = %12
  %18 = getelementptr inbounds i8, ptr %1, i64 -8
  %19 = load i64, ptr %18, align 8, !tbaa !15
  %.not = icmp ugt i64 %2, %19
  br i1 %.not, label %20, label %27

20:                                               ; preds = %17
  %21 = load ptr, ptr %0, align 8, !tbaa !3
  %22 = tail call ptr %21(ptr noundef nonnull %0, i64 noundef %2) #15
  %23 = icmp eq ptr %22, null
  br i1 %23, label %27, label %24

24:                                               ; preds = %20
  tail call void @llvm.memcpy.p0.p0.i64(ptr nonnull align 1 %22, ptr nonnull align 1 %1, i64 %19, i1 false)
  %25 = getelementptr inbounds nuw i8, ptr %0, i64 32
  %26 = load ptr, ptr %25, align 8, !tbaa !11
  tail call void %26(ptr noundef nonnull %0, ptr noundef nonnull %1) #15
  br label %27

27:                                               ; preds = %20, %17, %24, %14, %9, %5
  %.0 = phi ptr [ null, %5 ], [ %11, %9 ], [ null, %14 ], [ %22, %24 ], [ %1, %17 ], [ null, %20 ]
  ret ptr %.0
}